; Function Attrs: mustprogress uwtable
define hidden void @_ZN4cvc58internal9BitVector11mkMaxSignedEj(ptr dead_on_unwind noalias writable sret(%"class.cvc5::internal::BitVector") align 8 %0, i32 noundef %1) local_unnamed_addr #3 align 2 personality ptr @__gxx_personality_v0 {
  %3 = alloca %"class.cvc5::internal::Integer", align 8
  %4 = alloca %"class.cvc5::internal::BitVector", align 8
  call void @llvm.lifetime.start.p0(i64 24, ptr nonnull %4) #16
  store i32 %1, ptr %4, align 8, !tbaa !11, !alias.scope !41
  %5 = getelementptr inbounds nuw i8, ptr %4, i64 8
  call void @__gmpz_init(ptr noundef nonnull align 8 dereferenceable(16) %5) #16
  %6 = add i32 %1, -1
  invoke void @_ZN4cvc58internal7Integer6setBitEjb(ptr noundef nonnull align 8 dereferenceable(16) %5, i32 noundef %6, i1 noundef zeroext true)
          to label %_ZN4cvc58internal9BitVector11mkMinSignedEj.exit unwind label %7

7:                                                ; preds = %2
  %8 = landingpad { ptr, i32 }
          cleanup
  invoke void @__gmpz_clear(ptr noundef nonnull align 8 dereferenceable(16) %5)
          to label %common.resume unwind label %9

9:                                                ; preds = %7
  %10 = landingpad { ptr, i32 }
          catch ptr null
  %11 = extractvalue { ptr, i32 } %10, 0
  call void @__clang_call_terminate(ptr %11) #17
  unreachable

common.resume:                                    ; preds = %7, %_ZN4cvc58internal9BitVectorD2Ev.exit2
  %common.resume.op = phi { ptr, i32 } [ %eh.lpad-body, %_ZN4cvc58internal9BitVectorD2Ev.exit2 ], [ %8, %7 ]
  resume { ptr, i32 } %common.resume.op

_ZN4cvc58internal9BitVector11mkMinSignedEj.exit:  ; preds = %2
  call void @llvm.experimental.noalias.scope.decl(metadata !44)
  %12 = load i32, ptr %4, align 8, !tbaa !11, !noalias !44
  call void @llvm.lifetime.start.p0(i64 16, ptr nonnull %3) #16, !noalias !44
  invoke void @_ZNK4cvc58internal7Integer10bitwiseNotEv(ptr dead_on_unwind nonnull writable sret(%"class.cvc5::internal::Integer") align 8 %3, ptr noundef nonnull align 8 dereferenceable(16) %5)
          to label %.noexc unwind label %26

.noexc:                                           ; preds = %_ZN4cvc58internal9BitVector11mkMinSignedEj.exit
  store i32 %12, ptr %0, align 8, !tbaa !11, !alias.scope !44
  %13 = getelementptr inbounds nuw i8, ptr %0, i64 8
  invoke void @_ZNK4cvc58internal7Integer9modByPow2Ej(ptr dead_on_unwind nonnull writable sret(%"class.cvc5::internal::Integer") align 8 %13, ptr noundef nonnull align 8 dereferenceable(16) %3, i32 noundef %12)
          to label %_ZN4cvc58internal9BitVectorC2EjRKNS0_7IntegerE.exit.i unwind label %17

_ZN4cvc58internal9BitVectorC2EjRKNS0_7IntegerE.exit.i: ; preds = %.noexc
  invoke void @__gmpz_clear(ptr noundef nonnull align 8 dereferenceable(16) %3)
          to label %22 unwind label %14

14:                                               ; preds = %_ZN4cvc58internal9BitVectorC2EjRKNS0_7IntegerE.exit.i
  %15 = landingpad { ptr, i32 }
          catch ptr null
  %16 = extractvalue { ptr, i32 } %15, 0
  call void @__clang_call_terminate(ptr %16) #17
  unreachable

17:                                               ; preds = %.noexc
  %18 = landingpad { ptr, i32 }
          cleanup
  invoke void @__gmpz_clear(ptr noundef nonnull align 8 dereferenceable(16) %3)
          to label %_ZN4cvc58internal7IntegerD2Ev.exit3.i unwind label %19

19:                                               ; preds = %17
  %20 = landingpad { ptr, i32 }
          catch ptr null
  %21 = extractvalue { ptr, i32 } %20, 0
  call void @__clang_call_terminate(ptr %21) #17
  unreachable

_ZN4cvc58internal7IntegerD2Ev.exit3.i:            ; preds = %17
  call void @llvm.lifetime.end.p0(i64 16, ptr nonnull %3) #16, !noalias !44
  br label %.body

22:                                               ; preds = %_ZN4cvc58internal9BitVectorC2EjRKNS0_7IntegerE.exit.i
  call void @llvm.lifetime.end.p0(i64 16, ptr nonnull %3) #16, !noalias !44
  invoke void @__gmpz_clear(ptr noundef nonnull align 8 dereferenceable(16) %5)
          to label %_ZN4cvc58internal9BitVectorD2Ev.exit unwind label %23

23:                                               ; preds = %22
  %24 = landingpad { ptr, i32 }
          catch ptr null
  %25 = extractvalue { ptr, i32 } %24, 0
  call void @__clang_call_terminate(ptr %25) #17
  unreachable

_ZN4cvc58internal9BitVectorD2Ev.exit:             ; preds = %22
  call void @llvm.lifetime.end.p0(i64 24, ptr nonnull %4) #16
  ret void

26:                                               ; preds = %_ZN4cvc58internal9BitVector11mkMinSignedEj.exit
  %27 = landingpad { ptr, i32 }
          cleanup
  br label %.body

.body:                                            ; preds = %_ZN4cvc58internal7IntegerD2Ev.exit3.i, %26
  %eh.lpad-body = phi { ptr, i32 } [ %27, %26 ], [ %18, %_ZN4cvc58internal7IntegerD2Ev.exit3.i ]
  invoke void @__gmpz_clear(ptr noundef nonnull align 8 dereferenceable(16) %5)
          to label %_ZN4cvc58internal9BitVectorD2Ev.exit2 unwind label %28

28:                                               ; preds = %.body
  %29 = landingpad { ptr, i32 }
          catch ptr null
  %30 = extractvalue { ptr, i32 } %29, 0
  call void @__clang_call_terminate(ptr %30) #17
  unreachable

_ZN4cvc58internal9BitVectorD2Ev.exit2:            ; preds = %.body
  call void @llvm.lifetime.end.p0(i64 24, ptr nonnull %4) #16
  br label %common.resume
}